; Function Attrs: nounwind uwtable
define void @PMIx_Node_stats_destruct(ptr noundef captures(none) %0) local_unnamed_addr #6 {
  %2 = load ptr, ptr %0, align 8, !tbaa !112
  %.not.i = icmp eq ptr %2, null
  br i1 %.not.i, label %4, label %3

3:                                                ; preds = %1
  tail call void @free(ptr noundef nonnull %2) #44
  store ptr null, ptr %0, align 8, !tbaa !112
  br label %4

4:                                                ; preds = %3, %1
  %5 = getelementptr inbounds nuw i8, ptr %0, i64 72
  %6 = load ptr, ptr %5, align 8, !tbaa !114
  %.not18.i = icmp eq ptr %6, null
  br i1 %.not18.i, label %13, label %.preheader.i.i

.preheader.i.i:                                   ; preds = %4
  %7 = getelementptr inbounds nuw i8, ptr %0, i64 80
  %8 = load i64, ptr %7, align 8, !tbaa !115
  %.not2.i.i = icmp eq i64 %8, 0
  br i1 %.not2.i.i, label %pmix_bfrops_base_tma_disk_stats_free.exit.i, label %.lr.ph.i.i

.lr.ph.i.i:                                       ; preds = %.preheader.i.i, %pmix_bfrops_base_tma_disk_stats_destruct.exit.i.i
  %.01.i.i = phi i64 [ %12, %pmix_bfrops_base_tma_disk_stats_destruct.exit.i.i ], [ 0, %.preheader.i.i ]
  %9 = getelementptr inbounds nuw %struct.pmix_disk_stats_t, ptr %6, i64 %.01.i.i
  %10 = load ptr, ptr %9, align 8, !tbaa !66
  %.not.i.i.i = icmp eq ptr %10, null
  br i1 %.not.i.i.i, label %pmix_bfrops_base_tma_disk_stats_destruct.exit.i.i, label %11

11:                                               ; preds = %.lr.ph.i.i
  tail call void @free(ptr noundef nonnull %10) #44
  store ptr null, ptr %9, align 8, !tbaa !66
  br label %pmix_bfrops_base_tma_disk_stats_destruct.exit.i.i

pmix_bfrops_base_tma_disk_stats_destruct.exit.i.i: ; preds = %11, %.lr.ph.i.i
  %12 = add nuw i64 %.01.i.i, 1
  %exitcond.not.i.i = icmp eq i64 %12, %8
  br i1 %exitcond.not.i.i, label %pmix_bfrops_base_tma_disk_stats_free.exit.i, label %.lr.ph.i.i, !llvm.loop !110

pmix_bfrops_base_tma_disk_stats_free.exit.i:      ; preds = %pmix_bfrops_base_tma_disk_stats_destruct.exit.i.i, %.preheader.i.i
  tail call void @free(ptr noundef nonnull %6) #44
  tail call void @llvm.memset.p0.i64(ptr noundef nonnull align 8 dereferenceable(16) %5, i8 0, i64 16, i1 false)
  br label %13

13:                                               ; preds = %pmix_bfrops_base_tma_disk_stats_free.exit.i, %4
  %14 = getelementptr inbounds nuw i8, ptr %0, i64 88
  %15 = load ptr, ptr %14, align 8, !tbaa !116
  %.not19.i = icmp eq ptr %15, null
  br i1 %.not19.i, label %pmix_bfrops_base_tma_node_stats_destruct.exit, label %.preheader.i21.i

.preheader.i21.i:                                 ; preds = %13
  %16 = getelementptr inbounds nuw i8, ptr %0, i64 96
  %17 = load i64, ptr %16, align 8, !tbaa !117
  %.not2.i22.i = icmp eq i64 %17, 0
  br i1 %.not2.i22.i, label %pmix_bfrops_base_tma_net_stats_free.exit.i, label %.lr.ph.i23.i

.lr.ph.i23.i:                                     ; preds = %.preheader.i21.i, %pmix_bfrops_base_tma_net_stats_destruct.exit.i.i
  %.01.i24.i = phi i64 [ %21, %pmix_bfrops_base_tma_net_stats_destruct.exit.i.i ], [ 0, %.preheader.i21.i ]
  %18 = getelementptr inbounds nuw %struct.pmix_net_stats_t, ptr %15, i64 %.01.i24.i
  %19 = load ptr, ptr %18, align 8, !tbaa !68
  %.not.i.i25.i = icmp eq ptr %19, null
  br i1 %.not.i.i25.i, label %pmix_bfrops_base_tma_net_stats_destruct.exit.i.i, label %20

20:                                               ; preds = %.lr.ph.i23.i
  tail call void @free(ptr noundef nonnull %19) #44
  store ptr null, ptr %18, align 8, !tbaa !68
  br label %pmix_bfrops_base_tma_net_stats_destruct.exit.i.i

pmix_bfrops_base_tma_net_stats_destruct.exit.i.i: ; preds = %20, %.lr.ph.i23.i
  %21 = add nuw i64 %.01.i24.i, 1
  %exitcond.not.i26.i = icmp eq i64 %21, %17
  br i1 %exitcond.not.i26.i, label %pmix_bfrops_base_tma_net_stats_free.exit.i, label %.lr.ph.i23.i, !llvm.loop !111

pmix_bfrops_base_tma_net_stats_free.exit.i:       ; preds = %pmix_bfrops_base_tma_net_stats_destruct.exit.i.i, %.preheader.i21.i
  tail call void @free(ptr noundef nonnull %15) #44
  tail call void @llvm.memset.p0.i64(ptr noundef nonnull align 8 dereferenceable(16) %14, i8 0, i64 16, i1 false)
  br label %pmix_bfrops_base_tma_node_stats_destruct.exit

pmix_bfrops_base_tma_node_stats_destruct.exit:    ; preds = %13, %pmix_bfrops_base_tma_net_stats_free.exit.i
  ret void
}